target datalayout = "e-m:e-p270:32:32-p271:32:32-p272:64:64-i64:64-i128:128-f80:128-n8:16:32:64-S128"
target triple = "x86_64-pc-linux-gnu"

@.str.127 = private unnamed_addr constant [7 x i8] c"config\00", align 1
@.str.128 = private unnamed_addr constant [9 x i8] c"--global\00", align 1
@.str.131 = private unnamed_addr constant [12 x i8] c"scalar.repo\00", align 1
@.str.139 = private unnamed_addr constant [38 x i8] c"`scalar list` does not take arguments\00", align 1
@.str.140 = private unnamed_addr constant [10 x i8] c"--get-all\00", align 1

; Function Attrs: nounwind uwtable
define internal i32 @cmd_list(i32 noundef %0, ptr noundef %1) #0 {
  %3 = alloca i32, align 4
  %4 = alloca i32, align 4
  %5 = alloca ptr, align 8
  store i32 %0, ptr %4, align 4, !tbaa !11
  store ptr %1, ptr %5, align 8, !tbaa !13
  %6 = load i32, ptr %4, align 4, !tbaa !11
  %7 = icmp ne i32 %6, 1
  br i1 %7, label %8, label %10

8:                                                ; preds = %2
  %9 = call ptr @_(ptr noundef @.str.139)
  call void (ptr, ...) @die(ptr noundef %9) #11
  unreachable

10:                                               ; preds = %2
  %11 = call i32 (ptr, ...) @run_git(ptr noundef @.str.127, ptr noundef @.str.128, ptr noundef @.str.140, ptr noundef @.str.131, ptr noundef null)
  %12 = icmp slt i32 %11, 0
  br i1 %12, label %13, label %14

13:                                               ; preds = %10
  store i32 -1, ptr %3, align 4
  br label %15

14:                                               ; preds = %10
  store i32 0, ptr %3, align 4
  br label %15

15:                                               ; preds = %14, %13
  %16 = load i32, ptr %3, align 4
  ret i32 %16
}