; Function Attrs: nounwind uwtable
define internal range(i32 -1, 1) i32 @cmd_list(i32 noundef %0, ptr readnone captures(none) %1) #2 {
  %.not = icmp eq i32 %0, 1
  br i1 %.not, label %5, label %3

3:                                                ; preds = %2
  %4 = tail call fastcc ptr @_(ptr noundef nonnull @.str.139)
  tail call void (ptr, ...) @die(ptr noundef %4) #17
  unreachable

5:                                                ; preds = %2
  %6 = tail call i32 (ptr, ...) @run_git(ptr noundef nonnull @.str.127, ptr noundef nonnull @.str.128, ptr noundef nonnull @.str.140, ptr noundef nonnull @.str.131, ptr noundef null)
  %.lobit = ashr i32 %6, 31
  ret i32 %.lobit
}